target datalayout = "e-m:e-p270:32:32-p271:32:32-p272:64:64-i64:64-i128:128-f80:128-n8:16:32:64-S128"
target triple = "x86_64-pc-linux-gnu"

@.str = private unnamed_addr constant [5 x i8] c"%d'b\00", align 1

; Function Attrs: inlinehint nounwind uwtable
define internal i32 @Abc_InfoHasBit(ptr noundef %0, i32 noundef %1) #5 {
  %3 = alloca ptr, align 8
  %4 = alloca i32, align 4
  store ptr %0, ptr %3, align 8, !tbaa !3
  store i32 %1, ptr %4, align 4, !tbaa !8
  %5 = load ptr, ptr %3, align 8, !tbaa !3
  %6 = load i32, ptr %4, align 4, !tbaa !8
  %7 = ashr i32 %6, 5
  %8 = sext i32 %7 to i64
  %9 = getelementptr inbounds i32, ptr %5, i64 %8
  %10 = load i32, ptr %9, align 4, !tbaa !8
  %11 = load i32, ptr %4, align 4, !tbaa !8
  %12 = and i32 %11, 31
  %13 = shl i32 1, %12
  %14 = and i32 %10, %13
  %15 = icmp ugt i32 %14, 0
  %16 = zext i1 %15 to i32
  ret i32 %16
}

; Function Attrs: nounwind uwtable
define ptr @Wln_ConstFromBits(ptr noundef %0, i32 noundef %1) #0 {
  %3 = alloca ptr, align 8
  %4 = alloca i32, align 4
  %5 = alloca ptr, align 8
  %6 = alloca i32, align 4
  %7 = alloca i32, align 4
  store ptr %0, ptr %3, align 8, !tbaa !3
  store i32 %1, ptr %4, align 4, !tbaa !8
  call void @llvm.lifetime.start.p0(i64 8, ptr %5) #8
  %8 = load i32, ptr %4, align 4, !tbaa !8
  %9 = add nsw i32 %8, 100
  %10 = sext i32 %9 to i64
  %11 = mul i64 1, %10
  %12 = call noalias ptr @malloc(i64 noundef %11) #9
  store ptr %12, ptr %5, align 8, !tbaa !10
  call void @llvm.lifetime.start.p0(i64 4, ptr %6) #8
  call void @llvm.lifetime.start.p0(i64 4, ptr %7) #8
  %13 = load ptr, ptr %5, align 8, !tbaa !10
  %14 = load i32, ptr %4, align 4, !tbaa !8
  %15 = call i32 (ptr, ptr, ...) @sprintf(ptr noundef %13, ptr noundef @.str, i32 noundef %14) #8
  %16 = load ptr, ptr %5, align 8, !tbaa !10
  %17 = call i64 @strlen(ptr noundef %16) #10
  %18 = trunc i64 %17 to i32
  store i32 %18, ptr %7, align 4, !tbaa !8
  %19 = load i32, ptr %4, align 4, !tbaa !8
  %20 = sub nsw i32 %19, 1
  store i32 %20, ptr %6, align 4, !tbaa !8
  br label %21

21:                                               ; preds = %35, %2
  %22 = load i32, ptr %6, align 4, !tbaa !8
  %23 = icmp sge i32 %22, 0
  br i1 %23, label %24, label %38

24:                                               ; preds = %21
  %25 = load ptr, ptr %3, align 8, !tbaa !3
  %26 = load i32, ptr %6, align 4, !tbaa !8
  %27 = call i32 @Abc_InfoHasBit(ptr noundef %25, i32 noundef %26)
  %28 = add nsw i32 48, %27
  %29 = trunc i32 %28 to i8
  %30 = load ptr, ptr %5, align 8, !tbaa !10
  %31 = load i32, ptr %7, align 4, !tbaa !8
  %32 = add nsw i32 %31, 1
  store i32 %32, ptr %7, align 4, !tbaa !8
  %33 = sext i32 %31 to i64
  %34 = getelementptr inbounds i8, ptr %30, i64 %33
  store i8 %29, ptr %34, align 1, !tbaa !12
  br label %35

35:                                               ; preds = %24
  %36 = load i32, ptr %6, align 4, !tbaa !8
  %37 = add nsw i32 %36, -1
  store i32 %37, ptr %6, align 4, !tbaa !8
  br label %21, !llvm.loop !13

38:                                               ; preds = %21
  %39 = load ptr, ptr %5, align 8, !tbaa !10
  %40 = load i32, ptr %7, align 4, !tbaa !8
  %41 = sext i32 %40 to i64
  %42 = getelementptr inbounds i8, ptr %39, i64 %41
  store i8 0, ptr %42, align 1, !tbaa !12
  %43 = load ptr, ptr %5, align 8, !tbaa !10
  call void @llvm.lifetime.end.p0(i64 4, ptr %7) #8
  call void @llvm.lifetime.end.p0(i64 4, ptr %6) #8
  call void @llvm.lifetime.end.p0(i64 8, ptr %5) #8
  ret ptr %43
}