; Function Attrs: nofree nounwind uwtable
define noalias noundef ptr @Wln_ConstFromBits(ptr noundef readonly captures(none) %0, i32 noundef %1) local_unnamed_addr #0 {
  %3 = add nsw i32 %1, 100
  %4 = sext i32 %3 to i64
  %5 = tail call noalias ptr @malloc(i64 noundef %4) #14
  %6 = tail call i32 (ptr, ptr, ...) @sprintf(ptr noundef nonnull dereferenceable(1) %5, ptr noundef nonnull dereferenceable(1) @.str, i32 noundef %1) #15
  %7 = tail call i64 @strlen(ptr noundef nonnull dereferenceable(1) %5) #16
  %8 = icmp sgt i32 %1, 0
  br i1 %8, label %.lr.ph.preheader, label %._crit_edge

.lr.ph.preheader:                                 ; preds = %2
  %sext = shl i64 %7, 32
  %9 = ashr exact i64 %sext, 32
  br label %.lr.ph

.lr.ph:                                           ; preds = %.lr.ph.preheader, %.lr.ph
  %indvars.iv = phi i64 [ %9, %.lr.ph.preheader ], [ %indvars.iv.next, %.lr.ph ]
  %.013.in14 = phi i32 [ %1, %.lr.ph.preheader ], [ %.013, %.lr.ph ]
  %.013 = add nsw i32 %.013.in14, -1
  %10 = lshr i32 %.013, 5
  %11 = zext nneg i32 %10 to i64
  %12 = getelementptr inbounds nuw i32, ptr %0, i64 %11
  %13 = load i32, ptr %12, align 4, !tbaa !3
  %14 = and i32 %.013, 31
  %15 = lshr i32 %13, %14
  %16 = trunc i32 %15 to i8
  %17 = and i8 %16, 1
  %18 = or disjoint i8 %17, 48
  %indvars.iv.next = add nsw i64 %indvars.iv, 1
  %19 = getelementptr inbounds i8, ptr %5, i64 %indvars.iv
  store i8 %18, ptr %19, align 1, !tbaa !7
  %20 = icmp samesign ugt i32 %.013.in14, 1
  br i1 %20, label %.lr.ph, label %._crit_edge, !llvm.loop !8

._crit_edge:                                      ; preds = %.lr.ph, %2
  %.0.lcssa.in = phi i64 [ %7, %2 ], [ %indvars.iv.next, %.lr.ph ]
  %sext17 = shl i64 %.0.lcssa.in, 32
  %21 = ashr exact i64 %sext17, 32
  %22 = getelementptr inbounds i8, ptr %5, i64 %21
  store i8 0, ptr %22, align 1, !tbaa !7
  ret ptr %5
}